target datalayout = "e-m:e-p270:32:32-p271:32:32-p272:64:64-i64:64-i128:128-f80:128-n8:16:32:64-S128"
target triple = "x86_64-pc-linux-gnu"

%class.NavMeshTesterTool = type { %struct.SampleTool, ptr, ptr, ptr, %class.dtQueryFilter, i32, i32, i32, i32, i32, [256 x i32], [256 x i32], i32, [768 x float], [256 x i8], [256 x i32], i32, [3 x float], [6144 x float], i32, [12 x float], [192 x float], i32, i8, [3 x float], [3 x float], [3 x float], [3 x float], i8, float, float, float, i8, i8, i32, [256 x i32], i32, [3 x float], [3 x float], [3 x float], [3 x float], [30 x float], i32 }
%struct.SampleTool = type { ptr }
%class.dtQueryFilter = type { [64 x float], i16, i16 }
%class.Sample = type { ptr, ptr, ptr, ptr, ptr, i8, float, float, float, float, float, float, float, float, float, float, float, float, float, i32, i8, i8, i8, ptr, [9 x ptr], ptr, %class.SampleDebugDraw }
%class.SampleDebugDraw = type { %class.DebugDrawGL }
%class.DebugDrawGL = type { %struct.duDebugDraw }
%struct.duDebugDraw = type { ptr }

; Function Attrs: mustprogress nounwind uwtable
define linkonce_odr dso_local noundef i32 @_Z6duRGBAiiii(i32 noundef %0, i32 noundef %1, i32 noundef %2, i32 noundef %3) #1 comdat {
  %5 = alloca i32, align 4
  %6 = alloca i32, align 4
  %7 = alloca i32, align 4
  %8 = alloca i32, align 4
  store i32 %0, ptr %5, align 4
  store i32 %1, ptr %6, align 4
  store i32 %2, ptr %7, align 4
  store i32 %3, ptr %8, align 4
  %9 = load i32, ptr %5, align 4
  %10 = load i32, ptr %6, align 4
  %11 = shl i32 %10, 8
  %12 = or i32 %9, %11
  %13 = load i32, ptr %7, align 4
  %14 = shl i32 %13, 16
  %15 = or i32 %12, %14
  %16 = load i32, ptr %8, align 4
  %17 = shl i32 %16, 24
  %18 = or i32 %15, %17
  ret i32 %18
}

; Function Attrs: mustprogress nounwind uwtable
define linkonce_odr dso_local noundef nonnull align 8 dereferenceable(8) ptr @_ZN6Sample12getDebugDrawEv(ptr noundef nonnull align 8 dereferenceable(200) %0) #1 comdat align 2 {
  %2 = alloca ptr, align 8
  store ptr %0, ptr %2, align 8
  %3 = load ptr, ptr %2, align 8
  %4 = getelementptr inbounds %class.Sample, ptr %3, i32 0, i32 26
  ret ptr %4
}

; Function Attrs: mustprogress uwtable
define dso_local void @_ZN17NavMeshTesterTool9drawAgentEPKffffj(ptr noundef nonnull align 8 dereferenceable(33408) %0, ptr noundef %1, float noundef %2, float noundef %3, float noundef %4, i32 noundef %5) #0 align 2 {
  %7 = alloca ptr, align 8
  %8 = alloca ptr, align 8
  %9 = alloca float, align 4
  %10 = alloca float, align 4
  %11 = alloca float, align 4
  %12 = alloca i32, align 4
  %13 = alloca ptr, align 8
  %14 = alloca i32, align 4
  store ptr %0, ptr %7, align 8
  store ptr %1, ptr %8, align 8
  store float %2, ptr %9, align 4
  store float %3, ptr %10, align 4
  store float %4, ptr %11, align 4
  store i32 %5, ptr %12, align 4
  %15 = load ptr, ptr %7, align 8
  %16 = getelementptr inbounds %class.NavMeshTesterTool, ptr %15, i32 0, i32 1
  %17 = load ptr, ptr %16, align 8
  %18 = call noundef nonnull align 8 dereferenceable(8) ptr @_ZN6Sample12getDebugDrawEv(ptr noundef nonnull align 8 dereferenceable(200) %17)
  store ptr %18, ptr %13, align 8
  %19 = load ptr, ptr %13, align 8
  %20 = load ptr, ptr %19, align 8
  %21 = getelementptr inbounds ptr, ptr %20, i64 2
  %22 = load ptr, ptr %21, align 8
  call void %22(ptr noundef nonnull align 8 dereferenceable(8) %19, i1 noundef zeroext false)
  %23 = load ptr, ptr %13, align 8
  %24 = load ptr, ptr %8, align 8
  %25 = getelementptr inbounds float, ptr %24, i64 0
  %26 = load float, ptr %25, align 4
  %27 = load float, ptr %9, align 4
  %28 = fsub float %26, %27
  %29 = load ptr, ptr %8, align 8
  %30 = getelementptr inbounds float, ptr %29, i64 1
  %31 = load float, ptr %30, align 4
  %32 = fadd float %31, 0x3F947AE140000000
  %33 = load ptr, ptr %8, align 8
  %34 = getelementptr inbounds float, ptr %33, i64 2
  %35 = load float, ptr %34, align 4
  %36 = load float, ptr %9, align 4
  %37 = fsub float %35, %36
  %38 = load ptr, ptr %8, align 8
  %39 = getelementptr inbounds float, ptr %38, i64 0
  %40 = load float, ptr %39, align 4
  %41 = load float, ptr %9, align 4
  %42 = fadd float %40, %41
  %43 = load ptr, ptr %8, align 8
  %44 = getelementptr inbounds float, ptr %43, i64 1
  %45 = load float, ptr %44, align 4
  %46 = load float, ptr %10, align 4
  %47 = fadd float %45, %46
  %48 = load ptr, ptr %8, align 8
  %49 = getelementptr inbounds float, ptr %48, i64 2
  %50 = load float, ptr %49, align 4
  %51 = load float, ptr %9, align 4
  %52 = fadd float %50, %51
  %53 = load i32, ptr %12, align 4
  call void @_Z23duDebugDrawCylinderWireP11duDebugDrawffffffjf(ptr noundef %23, float noundef %28, float noundef %32, float noundef %37, float noundef %42, float noundef %47, float noundef %52, i32 noundef %53, float noundef 2.000000e+00)
  %54 = load ptr, ptr %13, align 8
  %55 = load ptr, ptr %8, align 8
  %56 = getelementptr inbounds float, ptr %55, i64 0
  %57 = load float, ptr %56, align 4
  %58 = load ptr, ptr %8, align 8
  %59 = getelementptr inbounds float, ptr %58, i64 1
  %60 = load float, ptr %59, align 4
  %61 = load float, ptr %11, align 4
  %62 = fadd float %60, %61
  %63 = load ptr, ptr %8, align 8
  %64 = getelementptr inbounds float, ptr %63, i64 2
  %65 = load float, ptr %64, align 4
  %66 = load float, ptr %9, align 4
  %67 = call noundef i32 @_Z6duRGBAiiii(i32 noundef 0, i32 noundef 0, i32 noundef 0, i32 noundef 64)
  call void @_Z17duDebugDrawCircleP11duDebugDrawffffjf(ptr noundef %54, float noundef %57, float noundef %62, float noundef %65, float noundef %66, i32 noundef %67, float noundef 1.000000e+00)
  %68 = call noundef i32 @_Z6duRGBAiiii(i32 noundef 0, i32 noundef 0, i32 noundef 0, i32 noundef 196)
  store i32 %68, ptr %14, align 4
  %69 = load ptr, ptr %13, align 8
  %70 = load ptr, ptr %69, align 8
  %71 = getelementptr inbounds ptr, ptr %70, i64 4
  %72 = load ptr, ptr %71, align 8
  call void %72(ptr noundef nonnull align 8 dereferenceable(8) %69, i32 noundef 1, float noundef 1.000000e+00)
  %73 = load ptr, ptr %13, align 8
  %74 = load ptr, ptr %8, align 8
  %75 = getelementptr inbounds float, ptr %74, i64 0
  %76 = load float, ptr %75, align 4
  %77 = load ptr, ptr %8, align 8
  %78 = getelementptr inbounds float, ptr %77, i64 1
  %79 = load float, ptr %78, align 4
  %80 = load float, ptr %11, align 4
  %81 = fsub float %79, %80
  %82 = load ptr, ptr %8, align 8
  %83 = getelementptr inbounds float, ptr %82, i64 2
  %84 = load float, ptr %83, align 4
  %85 = load i32, ptr %14, align 4
  %86 = load ptr, ptr %73, align 8
  %87 = getelementptr inbounds ptr, ptr %86, i64 6
  %88 = load ptr, ptr %87, align 8
  call void %88(ptr noundef nonnull align 8 dereferenceable(8) %73, float noundef %76, float noundef %81, float noundef %84, i32 noundef %85)
  %89 = load ptr, ptr %13, align 8
  %90 = load ptr, ptr %8, align 8
  %91 = getelementptr inbounds float, ptr %90, i64 0
  %92 = load float, ptr %91, align 4
  %93 = load ptr, ptr %8, align 8
  %94 = getelementptr inbounds float, ptr %93, i64 1
  %95 = load float, ptr %94, align 4
  %96 = load float, ptr %11, align 4
  %97 = fadd float %95, %96
  %98 = load ptr, ptr %8, align 8
  %99 = getelementptr inbounds float, ptr %98, i64 2
  %100 = load float, ptr %99, align 4
  %101 = load i32, ptr %14, align 4
  %102 = load ptr, ptr %89, align 8
  %103 = getelementptr inbounds ptr, ptr %102, i64 6
  %104 = load ptr, ptr %103, align 8
  call void %104(ptr noundef nonnull align 8 dereferenceable(8) %89, float noundef %92, float noundef %97, float noundef %100, i32 noundef %101)
  %105 = load ptr, ptr %13, align 8
  %106 = load ptr, ptr %8, align 8
  %107 = getelementptr inbounds float, ptr %106, i64 0
  %108 = load float, ptr %107, align 4
  %109 = load float, ptr %9, align 4
  %110 = fdiv float %109, 2.000000e+00
  %111 = fsub float %108, %110
  %112 = load ptr, ptr %8, align 8
  %113 = getelementptr inbounds float, ptr %112, i64 1
  %114 = load float, ptr %113, align 4
  %115 = fadd float %114, 0x3F947AE140000000
  %116 = load ptr, ptr %8, align 8
  %117 = getelementptr inbounds float, ptr %116, i64 2
  %118 = load float, ptr %117, align 4
  %119 = load i32, ptr %14, align 4
  %120 = load ptr, ptr %105, align 8
  %121 = getelementptr inbounds ptr, ptr %120, i64 6
  %122 = load ptr, ptr %121, align 8
  call void %122(ptr noundef nonnull align 8 dereferenceable(8) %105, float noundef %111, float noundef %115, float noundef %118, i32 noundef %119)
  %123 = load ptr, ptr %13, align 8
  %124 = load ptr, ptr %8, align 8
  %125 = getelementptr inbounds float, ptr %124, i64 0
  %126 = load float, ptr %125, align 4
  %127 = load float, ptr %9, align 4
  %128 = fdiv float %127, 2.000000e+00
  %129 = fadd float %126, %128
  %130 = load ptr, ptr %8, align 8
  %131 = getelementptr inbounds float, ptr %130, i64 1
  %132 = load float, ptr %131, align 4
  %133 = fadd float %132, 0x3F947AE140000000
  %134 = load ptr, ptr %8, align 8
  %135 = getelementptr inbounds float, ptr %134, i64 2
  %136 = load float, ptr %135, align 4
  %137 = load i32, ptr %14, align 4
  %138 = load ptr, ptr %123, align 8
  %139 = getelementptr inbounds ptr, ptr %138, i64 6
  %140 = load ptr, ptr %139, align 8
  call void %140(ptr noundef nonnull align 8 dereferenceable(8) %123, float noundef %129, float noundef %133, float noundef %136, i32 noundef %137)
  %141 = load ptr, ptr %13, align 8
  %142 = load ptr, ptr %8, align 8
  %143 = getelementptr inbounds float, ptr %142, i64 0
  %144 = load float, ptr %143, align 4
  %145 = load ptr, ptr %8, align 8
  %146 = getelementptr inbounds float, ptr %145, i64 1
  %147 = load float, ptr %146, align 4
  %148 = fadd float %147, 0x3F947AE140000000
  %149 = load ptr, ptr %8, align 8
  %150 = getelementptr inbounds float, ptr %149, i64 2
  %151 = load float, ptr %150, align 4
  %152 = load float, ptr %9, align 4
  %153 = fdiv float %152, 2.000000e+00
  %154 = fsub float %151, %153
  %155 = load i32, ptr %14, align 4
  %156 = load ptr, ptr %141, align 8
  %157 = getelementptr inbounds ptr, ptr %156, i64 6
  %158 = load ptr, ptr %157, align 8
  call void %158(ptr noundef nonnull align 8 dereferenceable(8) %141, float noundef %144, float noundef %148, float noundef %154, i32 noundef %155)
  %159 = load ptr, ptr %13, align 8
  %160 = load ptr, ptr %8, align 8
  %161 = getelementptr inbounds float, ptr %160, i64 0
  %162 = load float, ptr %161, align 4
  %163 = load ptr, ptr %8, align 8
  %164 = getelementptr inbounds float, ptr %163, i64 1
  %165 = load float, ptr %164, align 4
  %166 = fadd float %165, 0x3F947AE140000000
  %167 = load ptr, ptr %8, align 8
  %168 = getelementptr inbounds float, ptr %167, i64 2
  %169 = load float, ptr %168, align 4
  %170 = load float, ptr %9, align 4
  %171 = fdiv float %170, 2.000000e+00
  %172 = fadd float %169, %171
  %173 = load i32, ptr %14, align 4
  %174 = load ptr, ptr %159, align 8
  %175 = getelementptr inbounds ptr, ptr %174, i64 6
  %176 = load ptr, ptr %175, align 8
  call void %176(ptr noundef nonnull align 8 dereferenceable(8) %159, float noundef %162, float noundef %166, float noundef %172, i32 noundef %173)
  %177 = load ptr, ptr %13, align 8
  %178 = load ptr, ptr %177, align 8
  %179 = getelementptr inbounds ptr, ptr %178, i64 9
  %180 = load ptr, ptr %179, align 8
  call void %180(ptr noundef nonnull align 8 dereferenceable(8) %177)
  %181 = load ptr, ptr %13, align 8
  %182 = load ptr, ptr %181, align 8
  %183 = getelementptr inbounds ptr, ptr %182, i64 2
  %184 = load ptr, ptr %183, align 8
  call void %184(ptr noundef nonnull align 8 dereferenceable(8) %181, i1 noundef zeroext true)
  ret void
}