; Function Attrs: mustprogress uwtable
define dso_local void @_ZN17NavMeshTesterTool9drawAgentEPKffffj(ptr nocapture noundef nonnull readonly align 8 dereferenceable(33408) %0, ptr nocapture noundef readonly %1, float noundef %2, float noundef %3, float noundef %4, i32 noundef %5) local_unnamed_addr #0 align 2 {
  %7 = getelementptr inbounds i8, ptr %0, i64 8
  %8 = load ptr, ptr %7, align 8
  %9 = getelementptr inbounds i8, ptr %8, i64 192
  %10 = load ptr, ptr %9, align 8
  %11 = getelementptr inbounds i8, ptr %10, i64 16
  %12 = load ptr, ptr %11, align 8
  tail call void %12(ptr noundef nonnull align 8 dereferenceable(8) %9, i1 noundef zeroext false)
  %13 = load float, ptr %1, align 4
  %14 = fsub float %13, %2
  %15 = getelementptr inbounds i8, ptr %1, i64 4
  %16 = load float, ptr %15, align 4
  %17 = fadd float %16, 0x3F947AE140000000
  %18 = getelementptr inbounds i8, ptr %1, i64 8
  %19 = load float, ptr %18, align 4
  %20 = fsub float %19, %2
  %21 = fadd float %13, %2
  %22 = fadd float %16, %3
  %23 = fadd float %19, %2
  tail call void @_Z23duDebugDrawCylinderWireP11duDebugDrawffffffjf(ptr noundef nonnull %9, float noundef %14, float noundef %17, float noundef %20, float noundef %21, float noundef %22, float noundef %23, i32 noundef %5, float noundef 2.000000e+00)
  %24 = load float, ptr %1, align 4
  %25 = load float, ptr %15, align 4
  %26 = fadd float %25, %4
  %27 = load float, ptr %18, align 4
  tail call void @_Z17duDebugDrawCircleP11duDebugDrawffffjf(ptr noundef nonnull %9, float noundef %24, float noundef %26, float noundef %27, float noundef %2, i32 noundef 1073741824, float noundef 1.000000e+00)
  %28 = load ptr, ptr %9, align 8
  %29 = getelementptr inbounds i8, ptr %28, i64 32
  %30 = load ptr, ptr %29, align 8
  tail call void %30(ptr noundef nonnull align 8 dereferenceable(8) %9, i32 noundef 1, float noundef 1.000000e+00)
  %31 = load float, ptr %1, align 4
  %32 = load float, ptr %15, align 4
  %33 = fsub float %32, %4
  %34 = load float, ptr %18, align 4
  %35 = load ptr, ptr %9, align 8
  %36 = getelementptr inbounds i8, ptr %35, i64 48
  %37 = load ptr, ptr %36, align 8
  tail call void %37(ptr noundef nonnull align 8 dereferenceable(8) %9, float noundef %31, float noundef %33, float noundef %34, i32 noundef -1006632960)
  %38 = load float, ptr %1, align 4
  %39 = load float, ptr %15, align 4
  %40 = fadd float %39, %4
  %41 = load float, ptr %18, align 4
  %42 = load ptr, ptr %9, align 8
  %43 = getelementptr inbounds i8, ptr %42, i64 48
  %44 = load ptr, ptr %43, align 8
  tail call void %44(ptr noundef nonnull align 8 dereferenceable(8) %9, float noundef %38, float noundef %40, float noundef %41, i32 noundef -1006632960)
  %45 = load float, ptr %1, align 4
  %46 = fmul float %2, 5.000000e-01
  %47 = fsub float %45, %46
  %48 = load float, ptr %15, align 4
  %49 = fadd float %48, 0x3F947AE140000000
  %50 = load float, ptr %18, align 4
  %51 = load ptr, ptr %9, align 8
  %52 = getelementptr inbounds i8, ptr %51, i64 48
  %53 = load ptr, ptr %52, align 8
  tail call void %53(ptr noundef nonnull align 8 dereferenceable(8) %9, float noundef %47, float noundef %49, float noundef %50, i32 noundef -1006632960)
  %54 = load float, ptr %1, align 4
  %55 = fadd float %46, %54
  %56 = load float, ptr %15, align 4
  %57 = fadd float %56, 0x3F947AE140000000
  %58 = load float, ptr %18, align 4
  %59 = load ptr, ptr %9, align 8
  %60 = getelementptr inbounds i8, ptr %59, i64 48
  %61 = load ptr, ptr %60, align 8
  tail call void %61(ptr noundef nonnull align 8 dereferenceable(8) %9, float noundef %55, float noundef %57, float noundef %58, i32 noundef -1006632960)
  %62 = load float, ptr %1, align 4
  %63 = load float, ptr %15, align 4
  %64 = fadd float %63, 0x3F947AE140000000
  %65 = load float, ptr %18, align 4
  %66 = fsub float %65, %46
  %67 = load ptr, ptr %9, align 8
  %68 = getelementptr inbounds i8, ptr %67, i64 48
  %69 = load ptr, ptr %68, align 8
  tail call void %69(ptr noundef nonnull align 8 dereferenceable(8) %9, float noundef %62, float noundef %64, float noundef %66, i32 noundef -1006632960)
  %70 = load float, ptr %1, align 4
  %71 = load float, ptr %15, align 4
  %72 = fadd float %71, 0x3F947AE140000000
  %73 = load float, ptr %18, align 4
  %74 = fadd float %46, %73
  %75 = load ptr, ptr %9, align 8
  %76 = getelementptr inbounds i8, ptr %75, i64 48
  %77 = load ptr, ptr %76, align 8
  tail call void %77(ptr noundef nonnull align 8 dereferenceable(8) %9, float noundef %70, float noundef %72, float noundef %74, i32 noundef -1006632960)
  %78 = load ptr, ptr %9, align 8
  %79 = getelementptr inbounds i8, ptr %78, i64 72
  %80 = load ptr, ptr %79, align 8
  tail call void %80(ptr noundef nonnull align 8 dereferenceable(8) %9)
  %81 = load ptr, ptr %9, align 8
  %82 = getelementptr inbounds i8, ptr %81, i64 16
  %83 = load ptr, ptr %82, align 8
  tail call void %83(ptr noundef nonnull align 8 dereferenceable(8) %9, i1 noundef zeroext true)
  ret void
}